
CarESC.elf:     file format elf32-avr

Sections:
Idx Name          Size      VMA       LMA       File off  Algn
  0 .text         000003be  00000000  00000000  00000094  2**1
                  CONTENTS, ALLOC, LOAD, READONLY, CODE
  1 .data         0000000a  00800060  000003be  00000452  2**0
                  CONTENTS, ALLOC, LOAD, DATA
  2 .bss          00000003  0080006a  0080006a  0000045c  2**0
                  ALLOC
  3 .stab         000006b4  00000000  00000000  0000045c  2**2
                  CONTENTS, READONLY, DEBUGGING
  4 .stabstr      00000085  00000000  00000000  00000b10  2**0
                  CONTENTS, READONLY, DEBUGGING
  5 .debug_aranges 00000088  00000000  00000000  00000b98  2**3
                  CONTENTS, READONLY, DEBUGGING
  6 .debug_info   000007d4  00000000  00000000  00000c20  2**0
                  CONTENTS, READONLY, DEBUGGING
  7 .debug_abbrev 000001ee  00000000  00000000  000013f4  2**0
                  CONTENTS, READONLY, DEBUGGING
  8 .debug_line   00000416  00000000  00000000  000015e2  2**0
                  CONTENTS, READONLY, DEBUGGING
  9 .debug_frame  00000138  00000000  00000000  000019f8  2**2
                  CONTENTS, READONLY, DEBUGGING
 10 .debug_str    000001ac  00000000  00000000  00001b30  2**0
                  CONTENTS, READONLY, DEBUGGING
 11 .debug_loc    00000170  00000000  00000000  00001cdc  2**0
                  CONTENTS, READONLY, DEBUGGING
 12 .debug_ranges 00000018  00000000  00000000  00001e4c  2**0
                  CONTENTS, READONLY, DEBUGGING

Disassembly of section .text:

00000000 <__vectors>:
   0:	12 c0       	rjmp	.+36     	; 0x26 <__ctors_end>
   2:	2a c0       	rjmp	.+84     	; 0x58 <__bad_interrupt>
   4:	29 c0       	rjmp	.+82     	; 0x58 <__bad_interrupt>
   6:	c7 c0       	rjmp	.+398    	; 0x196 <__vector_3>
   8:	27 c0       	rjmp	.+78     	; 0x58 <__bad_interrupt>
   a:	a5 c0       	rjmp	.+330    	; 0x156 <__vector_5>
   c:	25 c0       	rjmp	.+74     	; 0x58 <__bad_interrupt>
   e:	24 c0       	rjmp	.+72     	; 0x58 <__bad_interrupt>
  10:	23 c0       	rjmp	.+70     	; 0x58 <__bad_interrupt>
  12:	22 c0       	rjmp	.+68     	; 0x58 <__bad_interrupt>
  14:	21 c0       	rjmp	.+66     	; 0x58 <__bad_interrupt>
  16:	20 c0       	rjmp	.+64     	; 0x58 <__bad_interrupt>
  18:	1f c0       	rjmp	.+62     	; 0x58 <__bad_interrupt>
  1a:	1e c0       	rjmp	.+60     	; 0x58 <__bad_interrupt>
  1c:	1d c0       	rjmp	.+58     	; 0x58 <__bad_interrupt>
  1e:	1c c0       	rjmp	.+56     	; 0x58 <__bad_interrupt>
  20:	1b c0       	rjmp	.+54     	; 0x58 <__bad_interrupt>
  22:	1a c0       	rjmp	.+52     	; 0x58 <__bad_interrupt>
  24:	19 c0       	rjmp	.+50     	; 0x58 <__bad_interrupt>

00000026 <__ctors_end>:
  26:	11 24       	eor	r1, r1
  28:	1f be       	out	0x3f, r1	; 63
  2a:	cf ed       	ldi	r28, 0xDF	; 223
  2c:	cd bf       	out	0x3d, r28	; 61

0000002e <__do_copy_data>:
  2e:	10 e0       	ldi	r17, 0x00	; 0
  30:	a0 e6       	ldi	r26, 0x60	; 96
  32:	b0 e0       	ldi	r27, 0x00	; 0
  34:	ee eb       	ldi	r30, 0xBE	; 190
  36:	f3 e0       	ldi	r31, 0x03	; 3
  38:	02 c0       	rjmp	.+4      	; 0x3e <__SP_H__>
  3a:	05 90       	lpm	r0, Z+
  3c:	0d 92       	st	X+, r0
  3e:	aa 36       	cpi	r26, 0x6A	; 106
  40:	b1 07       	cpc	r27, r17
  42:	d9 f7       	brne	.-10     	; 0x3a <__CCP__+0x6>

00000044 <__do_clear_bss>:
  44:	10 e0       	ldi	r17, 0x00	; 0
  46:	aa e6       	ldi	r26, 0x6A	; 106
  48:	b0 e0       	ldi	r27, 0x00	; 0
  4a:	01 c0       	rjmp	.+2      	; 0x4e <.do_clear_bss_start>

0000004c <.do_clear_bss_loop>:
  4c:	1d 92       	st	X+, r1

0000004e <.do_clear_bss_start>:
  4e:	ad 36       	cpi	r26, 0x6D	; 109
  50:	b1 07       	cpc	r27, r17
  52:	e1 f7       	brne	.-8      	; 0x4c <.do_clear_bss_loop>
  54:	2a d1       	rcall	.+596    	; 0x2aa <main>
  56:	b1 c1       	rjmp	.+866    	; 0x3ba <_exit>

00000058 <__bad_interrupt>:
  58:	d3 cf       	rjmp	.-90     	; 0x0 <__vectors>

0000005a <InitDriver>:
tPinTimingData pin = {0,0,1500};


void InitDriver() {
	//set as out ports
	DDriverPortLeft |= 1<<DriverPinLeft;
  5a:	bc 9a       	sbi	0x17, 4	; 23
	DDriverPortRight |= 1<<DriverPinRight;
  5c:	bb 9a       	sbi	0x17, 3	; 23
	DDriverPortPower |= 1<<DriverPinPower;
  5e:	ba 9a       	sbi	0x17, 2	; 23
	
	//Set them to 1. (off)
	DriverPortLeft |= 1<<DriverPinLeft;
  60:	c4 9a       	sbi	0x18, 4	; 24
	DriverPortRight |= 1<<DriverPinRight;
  62:	c3 9a       	sbi	0x18, 3	; 24
	DriverPortPower |= 1<<DriverPinPower;	
  64:	c2 9a       	sbi	0x18, 2	; 24
}
  66:	08 95       	ret

00000068 <DriveForward>:

void DriveForward() {
	PortTmp &= ~_BV(TDriverPinLeft);
  68:	80 91 69 00 	lds	r24, 0x0069
	PortTmp |= _BV(TDriverPinRight);
  6c:	88 7f       	andi	r24, 0xF8	; 248
	PortTmp &= ~_BV(TDriverPinPower);
  6e:	82 60       	ori	r24, 0x02	; 2
  70:	80 93 69 00 	sts	0x0069, r24
}
  74:	08 95       	ret

00000076 <DriveBack>:

void DriveBack() {
	PortTmp |= _BV(TDriverPinLeft);
  76:	80 91 69 00 	lds	r24, 0x0069
  7a:	81 60       	ori	r24, 0x01	; 1
	PortTmp &= ~_BV(TDriverPinRight);
	PortTmp &= ~_BV(TDriverPinPower);
  7c:	89 7f       	andi	r24, 0xF9	; 249
  7e:	80 93 69 00 	sts	0x0069, r24
}
  82:	08 95       	ret

00000084 <Break>:

void Break() {
	PortTmp |= _BV(TDriverPinLeft);
	PortTmp |= _BV(TDriverPinRight);
	PortTmp |= _BV(TDriverPinPower);
  84:	80 91 69 00 	lds	r24, 0x0069
  88:	87 60       	ori	r24, 0x07	; 7
  8a:	80 93 69 00 	sts	0x0069, r24
}
  8e:	08 95       	ret

00000090 <DriverOff>:

void DriverOff() {
	PortTmp |= _BV(TDriverPinLeft);
	PortTmp |= _BV(TDriverPinRight);
	PortTmp |= _BV(TDriverPinPower);
  90:	80 91 69 00 	lds	r24, 0x0069
  94:	87 60       	ori	r24, 0x07	; 7
  96:	80 93 69 00 	sts	0x0069, r24
}
  9a:	08 95       	ret

0000009c <Forward>:


void Forward() {
	DriverOff();
  9c:	f9 df       	rcall	.-14     	; 0x90 <DriverOff>
	DriveForward();
  9e:	e4 df       	rcall	.-56     	; 0x68 <DriveForward>
}
  a0:	08 95       	ret

000000a2 <Backward>:

void Backward() {
	DriverOff();
  a2:	f6 df       	rcall	.-20     	; 0x90 <DriverOff>
	DriveBack();
  a4:	e8 df       	rcall	.-48     	; 0x76 <DriveBack>
}
  a6:	08 95       	ret

000000a8 <AllOff>:

void AllOff() {
	PortTmp |= _BV(TDriverPinLeft);
	PortTmp |= _BV(TDriverPinRight);
	PortTmp |= _BV(TDriverPinPower);
  a8:	80 91 69 00 	lds	r24, 0x0069
  ac:	87 60       	ori	r24, 0x07	; 7
  ae:	80 93 69 00 	sts	0x0069, r24
}
  b2:	08 95       	ret

000000b4 <UpdatePort>:

void UpdatePort() {
	//DRIVE
	
	uint32_t tmp = (pin.lastGoodWidth - 1000);
  b4:	40 91 64 00 	lds	r20, 0x0064
  b8:	50 91 65 00 	lds	r21, 0x0065
	
	if (IsPinSet(PortTmp, TDriverPinPower)) {
  bc:	80 91 69 00 	lds	r24, 0x0069
  c0:	90 e0       	ldi	r25, 0x00	; 0
  c2:	82 ff       	sbrs	r24, 2
  c4:	02 c0       	rjmp	.+4      	; 0xca <UpdatePort+0x16>
		OCR0A = 0xFF;
  c6:	8f ef       	ldi	r24, 0xFF	; 255
  c8:	18 c0       	rjmp	.+48     	; 0xfa <__stack+0x1b>
}

void UpdatePort() {
	//DRIVE
	
	uint32_t tmp = (pin.lastGoodWidth - 1000);
  ca:	48 5e       	subi	r20, 0xE8	; 232
  cc:	53 40       	sbci	r21, 0x03	; 3
  ce:	60 e0       	ldi	r22, 0x00	; 0
  d0:	70 e0       	ldi	r23, 0x00	; 0
  d2:	9c 01       	movw	r18, r24
  d4:	22 70       	andi	r18, 0x02	; 2
  d6:	30 70       	andi	r19, 0x00	; 0
	
	if (IsPinSet(PortTmp, TDriverPinPower)) {
		OCR0A = 0xFF;
	} else {
		if (IsPinClear(PortTmp, TDriverPinLeft) && IsPinSet(PortTmp, TDriverPinRight)) {
  d8:	80 fd       	sbrc	r24, 0
  da:	11 c0       	rjmp	.+34     	; 0xfe <__stack+0x1f>
  dc:	21 15       	cp	r18, r1
  de:	31 05       	cpc	r19, r1
  e0:	d1 f0       	breq	.+52     	; 0x116 <__stack+0x37>
			OCR0A = (500-tmp)/2;
  e2:	84 ef       	ldi	r24, 0xF4	; 244
  e4:	91 e0       	ldi	r25, 0x01	; 1
  e6:	a0 e0       	ldi	r26, 0x00	; 0
  e8:	b0 e0       	ldi	r27, 0x00	; 0
  ea:	84 1b       	sub	r24, r20
  ec:	95 0b       	sbc	r25, r21
  ee:	a6 0b       	sbc	r26, r22
  f0:	b7 0b       	sbc	r27, r23
  f2:	b6 95       	lsr	r27
  f4:	a7 95       	ror	r26
  f6:	97 95       	ror	r25
  f8:	87 95       	ror	r24
  fa:	86 bf       	out	0x36, r24	; 54
  fc:	0c c0       	rjmp	.+24     	; 0x116 <__stack+0x37>
		} else if (IsPinSet(PortTmp, TDriverPinLeft) && IsPinClear(PortTmp, TDriverPinRight)) {
  fe:	21 15       	cp	r18, r1
 100:	31 05       	cpc	r19, r1
 102:	49 f4       	brne	.+18     	; 0x116 <__stack+0x37>
			OCR0A = (tmp-500)/2;
 104:	44 5f       	subi	r20, 0xF4	; 244
 106:	51 40       	sbci	r21, 0x01	; 1
 108:	60 40       	sbci	r22, 0x00	; 0
 10a:	70 40       	sbci	r23, 0x00	; 0
 10c:	76 95       	lsr	r23
 10e:	67 95       	ror	r22
 110:	57 95       	ror	r21
 112:	47 95       	ror	r20
 114:	46 bf       	out	0x36, r20	; 54
	#else
		//round up by default
		__ticks_dc = (uint32_t)(ceil(fabs(__tmp)));
	#endif

	__builtin_avr_delay_cycles(__ticks_dc);
 116:	8f ef       	ldi	r24, 0xFF	; 255
 118:	90 e7       	ldi	r25, 0x70	; 112
 11a:	a2 e0       	ldi	r26, 0x02	; 2
 11c:	81 50       	subi	r24, 0x01	; 1
 11e:	90 40       	sbci	r25, 0x00	; 0
 120:	a0 40       	sbci	r26, 0x00	; 0
 122:	e1 f7       	brne	.-8      	; 0x11c <__stack+0x3d>
 124:	00 c0       	rjmp	.+0      	; 0x126 <__stack+0x47>
 126:	00 00       	nop
		return;
	*/		

	_delay_ms(100);
	
	if (IsPinClear(PortTmp, TDriverPinLeft) && IsPinClear(PortTmp, TDriverPinRight)) {
 128:	20 91 69 00 	lds	r18, 0x0069
 12c:	30 e0       	ldi	r19, 0x00	; 0
 12e:	c9 01       	movw	r24, r18
 130:	82 70       	andi	r24, 0x02	; 2
 132:	90 70       	andi	r25, 0x00	; 0
 134:	20 fd       	sbrc	r18, 0
 136:	04 c0       	rjmp	.+8      	; 0x140 <__stack+0x61>
 138:	00 97       	sbiw	r24, 0x00	; 0
 13a:	41 f0       	breq	.+16     	; 0x14c <__stack+0x6d>
		//break
		//ClearPin(DriverPortLeft, DriverPinLeft);
		//ClearPin(DriverPortRight, DriverPinRight);
	} else if (IsPinClear(PortTmp, TDriverPinLeft) && IsPinSet(PortTmp, TDriverPinRight)) {
		//Forward
		ClearPin(DriverPortLeft, DriverPinLeft); 
 13c:	c4 98       	cbi	0x18, 4	; 24
 13e:	05 c0       	rjmp	.+10     	; 0x14a <__stack+0x6b>
		SetPin(DriverPortRight, DriverPinRight);
		//OCR0A = (tmp-500)/2;
		
	} else if (IsPinSet(PortTmp, TDriverPinLeft) && IsPinClear(PortTmp, TDriverPinRight)) {
		//Backward
		SetPin(DriverPortLeft, DriverPinLeft);
 140:	c4 9a       	sbi	0x18, 4	; 24
		//Forward
		ClearPin(DriverPortLeft, DriverPinLeft); 
		SetPin(DriverPortRight, DriverPinRight);
		//OCR0A = (tmp-500)/2;
		
	} else if (IsPinSet(PortTmp, TDriverPinLeft) && IsPinClear(PortTmp, TDriverPinRight)) {
 142:	00 97       	sbiw	r24, 0x00	; 0
 144:	11 f4       	brne	.+4      	; 0x14a <__stack+0x6b>
		//Backward
		SetPin(DriverPortLeft, DriverPinLeft);
		ClearPin(DriverPortRight, DriverPinRight);
 146:	c3 98       	cbi	0x18, 3	; 24
 148:	01 c0       	rjmp	.+2      	; 0x14c <__stack+0x6d>
		//OCR0A = (500-tmp)/2;
		
	} else if (IsPinSet(PortTmp, TDriverPinLeft) && IsPinSet(PortTmp, TDriverPinRight)) {
		SetPin(DriverPortLeft, DriverPinLeft);
		SetPin(DriverPortRight, DriverPinRight);		
 14a:	c3 9a       	sbi	0x18, 3	; 24
	}
		
	PortTmpPrevious = PortTmp;
 14c:	80 91 69 00 	lds	r24, 0x0069
 150:	80 93 68 00 	sts	0x0068, r24
}
 154:	08 95       	ret

00000156 <__vector_5>:

ISR(TIMER1_OVF_vect) {
 156:	1f 92       	push	r1
 158:	0f 92       	push	r0
 15a:	0f b6       	in	r0, 0x3f	; 63
 15c:	0f 92       	push	r0
 15e:	11 24       	eor	r1, r1
 160:	8f 93       	push	r24
 162:	9f 93       	push	r25
		fail = TRUE;		
	} else {
		fail = FALSE;		
	} 
*/
	ov_counter++;
 164:	80 91 6a 00 	lds	r24, 0x006A
 168:	90 91 6b 00 	lds	r25, 0x006B
 16c:	01 96       	adiw	r24, 0x01	; 1
 16e:	90 93 6b 00 	sts	0x006B, r25
 172:	80 93 6a 00 	sts	0x006A, r24
	
	if (ov_counter > 3) {
 176:	84 30       	cpi	r24, 0x04	; 4
 178:	91 05       	cpc	r25, r1
 17a:	20 f0       	brcs	.+8      	; 0x184 <__vector_5+0x2e>
		fail = TRUE;		
 17c:	81 e0       	ldi	r24, 0x01	; 1
 17e:	80 93 66 00 	sts	0x0066, r24
 182:	02 c0       	rjmp	.+4      	; 0x188 <__vector_5+0x32>
	} else {
		fail = FALSE;		
 184:	10 92 66 00 	sts	0x0066, r1
	}
}
 188:	9f 91       	pop	r25
 18a:	8f 91       	pop	r24
 18c:	0f 90       	pop	r0
 18e:	0f be       	out	0x3f, r0	; 63
 190:	0f 90       	pop	r0
 192:	1f 90       	pop	r1
 194:	18 95       	reti

00000196 <__vector_3>:

ISR(TIMER1_CAPT_vect){
 196:	1f 92       	push	r1
 198:	0f 92       	push	r0
 19a:	0f b6       	in	r0, 0x3f	; 63
 19c:	0f 92       	push	r0
 19e:	11 24       	eor	r1, r1
 1a0:	0f 93       	push	r16
 1a2:	1f 93       	push	r17
 1a4:	2f 93       	push	r18
 1a6:	3f 93       	push	r19
 1a8:	4f 93       	push	r20
 1aa:	5f 93       	push	r21
 1ac:	6f 93       	push	r22
 1ae:	7f 93       	push	r23
 1b0:	8f 93       	push	r24
 1b2:	9f 93       	push	r25
 1b4:	af 93       	push	r26
 1b6:	bf 93       	push	r27
 1b8:	ef 93       	push	r30
 1ba:	ff 93       	push	r31
 1bc:	80 91 6a 00 	lds	r24, 0x006A
 1c0:	90 91 6b 00 	lds	r25, 0x006B
		fail = FALSE;		
	}	
*/
	
	uint32_t time;
	if (IsPinSet(PIND, PIND6) > 0) {		
 1c4:	86 9b       	sbis	0x10, 6	; 16
 1c6:	2d c0       	rjmp	.+90     	; 0x222 <__vector_3+0x8c>
		time = (((uint32_t)ov_counter)<<16) + pin.riseTime;
 1c8:	40 91 60 00 	lds	r20, 0x0060
 1cc:	50 91 61 00 	lds	r21, 0x0061
 1d0:	60 e0       	ldi	r22, 0x00	; 0
 1d2:	70 e0       	ldi	r23, 0x00	; 0
 1d4:	40 5e       	subi	r20, 0xE0	; 224
 1d6:	5e 42       	sbci	r21, 0x2E	; 46
 1d8:	60 40       	sbci	r22, 0x00	; 0
 1da:	70 40       	sbci	r23, 0x00	; 0
 1dc:	a0 e0       	ldi	r26, 0x00	; 0
 1de:	b0 e0       	ldi	r27, 0x00	; 0
 1e0:	dc 01       	movw	r26, r24
 1e2:	99 27       	eor	r25, r25
 1e4:	88 27       	eor	r24, r24
		if ((time >= MINOFFWIDTH) && (time <= MAXOFFWIDTH)) {
 1e6:	48 0f       	add	r20, r24
 1e8:	59 1f       	adc	r21, r25
 1ea:	6a 1f       	adc	r22, r26
 1ec:	7b 1f       	adc	r23, r27
 1ee:	41 3e       	cpi	r20, 0xE1	; 225
 1f0:	2e e2       	ldi	r18, 0x2E	; 46
 1f2:	52 07       	cpc	r21, r18
 1f4:	20 e0       	ldi	r18, 0x00	; 0
 1f6:	62 07       	cpc	r22, r18
 1f8:	20 e0       	ldi	r18, 0x00	; 0
 1fa:	72 07       	cpc	r23, r18
 1fc:	20 f4       	brcc	.+8      	; 0x206 <__vector_3+0x70>
			ov_counter = 0;
 1fe:	10 92 6b 00 	sts	0x006B, r1
 202:	10 92 6a 00 	sts	0x006A, r1
		} 
		
		pin.riseTime = ICR1;
 206:	84 b5       	in	r24, 0x24	; 36
 208:	95 b5       	in	r25, 0x25	; 37
 20a:	90 93 61 00 	sts	0x0061, r25
 20e:	80 93 60 00 	sts	0x0060, r24
		
		TCCR1B &= ~(1<<ICES1); 
 212:	8e b5       	in	r24, 0x2e	; 46
 214:	8f 7b       	andi	r24, 0xBF	; 191
 216:	8e bd       	out	0x2e, r24	; 46
		ov_counter=0; 
 218:	10 92 6b 00 	sts	0x006B, r1
 21c:	10 92 6a 00 	sts	0x006A, r1
 220:	31 c0       	rjmp	.+98     	; 0x284 <__vector_3+0xee>
		
	} else { 
		pin.fallTime = ICR1;
 222:	44 b5       	in	r20, 0x24	; 36
 224:	55 b5       	in	r21, 0x25	; 37
 226:	50 93 63 00 	sts	0x0063, r21
 22a:	40 93 62 00 	sts	0x0062, r20

		TCCR1B|=1<<ICES1;
 22e:	2e b5       	in	r18, 0x2e	; 46
 230:	20 64       	ori	r18, 0x40	; 64
 232:	2e bd       	out	0x2e, r18	; 46
		time=(uint32_t)pin.fallTime-(uint32_t)pin.riseTime+(((uint32_t)ov_counter)<<16); 
 234:	a0 e0       	ldi	r26, 0x00	; 0
 236:	b0 e0       	ldi	r27, 0x00	; 0
 238:	dc 01       	movw	r26, r24
 23a:	99 27       	eor	r25, r25
 23c:	88 27       	eor	r24, r24
 23e:	20 91 60 00 	lds	r18, 0x0060
 242:	30 91 61 00 	lds	r19, 0x0061
 246:	89 01       	movw	r16, r18
 248:	20 e0       	ldi	r18, 0x00	; 0
 24a:	30 e0       	ldi	r19, 0x00	; 0
 24c:	80 1b       	sub	r24, r16
 24e:	91 0b       	sbc	r25, r17
 250:	a2 0b       	sbc	r26, r18
 252:	b3 0b       	sbc	r27, r19
 254:	60 e0       	ldi	r22, 0x00	; 0
 256:	70 e0       	ldi	r23, 0x00	; 0
 258:	84 0f       	add	r24, r20
 25a:	95 1f       	adc	r25, r21
 25c:	a6 1f       	adc	r26, r22
 25e:	b7 1f       	adc	r27, r23
		if ((time >= MINONWIDTH) && (time <= MAXONWIDTH)) {
 260:	ac 01       	movw	r20, r24
 262:	bd 01       	movw	r22, r26
 264:	46 5b       	subi	r20, 0xB6	; 182
 266:	53 40       	sbci	r21, 0x03	; 3
 268:	60 40       	sbci	r22, 0x00	; 0
 26a:	70 40       	sbci	r23, 0x00	; 0
 26c:	46 36       	cpi	r20, 0x66	; 102
 26e:	24 e0       	ldi	r18, 0x04	; 4
 270:	52 07       	cpc	r21, r18
 272:	20 e0       	ldi	r18, 0x00	; 0
 274:	62 07       	cpc	r22, r18
 276:	20 e0       	ldi	r18, 0x00	; 0
 278:	72 07       	cpc	r23, r18
 27a:	20 f4       	brcc	.+8      	; 0x284 <__vector_3+0xee>
			pin.lastGoodWidth = time;
 27c:	e0 e6       	ldi	r30, 0x60	; 96
 27e:	f0 e0       	ldi	r31, 0x00	; 0
 280:	95 83       	std	Z+5, r25	; 0x05
 282:	84 83       	std	Z+4, r24	; 0x04
		} 
	} 
} 
 284:	ff 91       	pop	r31
 286:	ef 91       	pop	r30
 288:	bf 91       	pop	r27
 28a:	af 91       	pop	r26
 28c:	9f 91       	pop	r25
 28e:	8f 91       	pop	r24
 290:	7f 91       	pop	r23
 292:	6f 91       	pop	r22
 294:	5f 91       	pop	r21
 296:	4f 91       	pop	r20
 298:	3f 91       	pop	r19
 29a:	2f 91       	pop	r18
 29c:	1f 91       	pop	r17
 29e:	0f 91       	pop	r16
 2a0:	0f 90       	pop	r0
 2a2:	0f be       	out	0x3f, r0	; 63
 2a4:	0f 90       	pop	r0
 2a6:	1f 90       	pop	r1
 2a8:	18 95       	reti

000002aa <main>:

int main(void)
{	
	wdt_enable(WDTO_500MS);
 2aa:	2d e0       	ldi	r18, 0x0D	; 13
 2ac:	88 e1       	ldi	r24, 0x18	; 24
 2ae:	90 e0       	ldi	r25, 0x00	; 0
 2b0:	0f b6       	in	r0, 0x3f	; 63
 2b2:	f8 94       	cli
 2b4:	a8 95       	wdr
 2b6:	81 bd       	out	0x21, r24	; 33
 2b8:	0f be       	out	0x3f, r0	; 63
 2ba:	21 bd       	out	0x21, r18	; 33
	
	PortTmp = 0xFF;
 2bc:	cf ef       	ldi	r28, 0xFF	; 255
 2be:	c0 93 69 00 	sts	0x0069, r28
	PortTmpPrevious = 0xFF;
 2c2:	c0 93 68 00 	sts	0x0068, r28
	
	DDRB = 0xFC;
 2c6:	8c ef       	ldi	r24, 0xFC	; 252
 2c8:	87 bb       	out	0x17, r24	; 23
	PORTB= 0xFF;
 2ca:	c8 bb       	out	0x18, r28	; 24
	
	DDRD = 0x00;
 2cc:	11 ba       	out	0x11, r1	; 17
	PORTD= 0xFF;
 2ce:	c2 bb       	out	0x12, r28	; 18
	
	InitDriver();
 2d0:	c4 de       	rcall	.-632    	; 0x5a <InitDriver>
	DriverOff();
 2d2:	de de       	rcall	.-580    	; 0x90 <DriverOff>
 2d4:	8f e7       	ldi	r24, 0x7F	; 127
 2d6:	9a e1       	ldi	r25, 0x1A	; 26
 2d8:	a6 e0       	ldi	r26, 0x06	; 6
 2da:	81 50       	subi	r24, 0x01	; 1
 2dc:	90 40       	sbci	r25, 0x00	; 0
 2de:	a0 40       	sbci	r26, 0x00	; 0
 2e0:	e1 f7       	brne	.-8      	; 0x2da <main+0x30>
 2e2:	00 c0       	rjmp	.+0      	; 0x2e4 <main+0x3a>
 2e4:	00 00       	nop
	
	_delay_ms(250);
	wdt_reset();
 2e6:	a8 95       	wdr
 2e8:	8f e7       	ldi	r24, 0x7F	; 127
 2ea:	9a e1       	ldi	r25, 0x1A	; 26
 2ec:	a6 e0       	ldi	r26, 0x06	; 6
 2ee:	81 50       	subi	r24, 0x01	; 1
 2f0:	90 40       	sbci	r25, 0x00	; 0
 2f2:	a0 40       	sbci	r26, 0x00	; 0
 2f4:	e1 f7       	brne	.-8      	; 0x2ee <main+0x44>
 2f6:	00 c0       	rjmp	.+0      	; 0x2f8 <main+0x4e>
 2f8:	00 00       	nop
	_delay_ms(250);
	wdt_reset();
 2fa:	a8 95       	wdr
 2fc:	8f e7       	ldi	r24, 0x7F	; 127
 2fe:	9a e1       	ldi	r25, 0x1A	; 26
 300:	a6 e0       	ldi	r26, 0x06	; 6
 302:	81 50       	subi	r24, 0x01	; 1
 304:	90 40       	sbci	r25, 0x00	; 0
 306:	a0 40       	sbci	r26, 0x00	; 0
 308:	e1 f7       	brne	.-8      	; 0x302 <main+0x58>
 30a:	00 c0       	rjmp	.+0      	; 0x30c <main+0x62>
 30c:	00 00       	nop
	_delay_ms(250);
	wdt_reset();
 30e:	a8 95       	wdr
 310:	8f e7       	ldi	r24, 0x7F	; 127
 312:	9a e1       	ldi	r25, 0x1A	; 26
 314:	a6 e0       	ldi	r26, 0x06	; 6
 316:	81 50       	subi	r24, 0x01	; 1
 318:	90 40       	sbci	r25, 0x00	; 0
 31a:	a0 40       	sbci	r26, 0x00	; 0
 31c:	e1 f7       	brne	.-8      	; 0x316 <main+0x6c>
 31e:	00 c0       	rjmp	.+0      	; 0x320 <main+0x76>
 320:	00 00       	nop
	_delay_ms(250);
	wdt_reset();
 322:	a8 95       	wdr
 324:	8f e7       	ldi	r24, 0x7F	; 127
 326:	9a e1       	ldi	r25, 0x1A	; 26
 328:	a6 e0       	ldi	r26, 0x06	; 6
 32a:	81 50       	subi	r24, 0x01	; 1
 32c:	90 40       	sbci	r25, 0x00	; 0
 32e:	a0 40       	sbci	r26, 0x00	; 0
 330:	e1 f7       	brne	.-8      	; 0x32a <main+0x80>
 332:	00 c0       	rjmp	.+0      	; 0x334 <main+0x8a>
 334:	00 00       	nop
	_delay_ms(250);
	wdt_reset();
 336:	a8 95       	wdr
 338:	8f e7       	ldi	r24, 0x7F	; 127
 33a:	9a e1       	ldi	r25, 0x1A	; 26
 33c:	a6 e0       	ldi	r26, 0x06	; 6
 33e:	81 50       	subi	r24, 0x01	; 1
 340:	90 40       	sbci	r25, 0x00	; 0
 342:	a0 40       	sbci	r26, 0x00	; 0
 344:	e1 f7       	brne	.-8      	; 0x33e <main+0x94>
 346:	00 c0       	rjmp	.+0      	; 0x348 <main+0x9e>
 348:	00 00       	nop
	_delay_ms(250);
	wdt_reset();
 34a:	a8 95       	wdr
 34c:	8f e7       	ldi	r24, 0x7F	; 127
 34e:	9a e1       	ldi	r25, 0x1A	; 26
 350:	a6 e0       	ldi	r26, 0x06	; 6
 352:	81 50       	subi	r24, 0x01	; 1
 354:	90 40       	sbci	r25, 0x00	; 0
 356:	a0 40       	sbci	r26, 0x00	; 0
 358:	e1 f7       	brne	.-8      	; 0x352 <main+0xa8>
 35a:	00 c0       	rjmp	.+0      	; 0x35c <main+0xb2>
 35c:	00 00       	nop
	_delay_ms(250);
	wdt_reset();
 35e:	a8 95       	wdr
 360:	8f e7       	ldi	r24, 0x7F	; 127
 362:	9a e1       	ldi	r25, 0x1A	; 26
 364:	a6 e0       	ldi	r26, 0x06	; 6
 366:	81 50       	subi	r24, 0x01	; 1
 368:	90 40       	sbci	r25, 0x00	; 0
 36a:	a0 40       	sbci	r26, 0x00	; 0
 36c:	e1 f7       	brne	.-8      	; 0x366 <main+0xbc>
 36e:	00 c0       	rjmp	.+0      	; 0x370 <main+0xc6>
 370:	00 00       	nop
	_delay_ms(250);
	wdt_reset();
 372:	a8 95       	wdr
	
	OCR0A = 0xFF;
 374:	c6 bf       	out	0x36, r28	; 54
	TCCR0A=0b10000111; //Clear OC0A on Compare Match // Fast PWM
 376:	87 e8       	ldi	r24, 0x87	; 135
 378:	80 bf       	out	0x30, r24	; 48
	TCCR0B=0b00000010; //clk/8 // clk=8mhz/8= 1mhz
 37a:	82 e0       	ldi	r24, 0x02	; 2
 37c:	83 bf       	out	0x33, r24	; 51
	
	TCCR1A=0; //Normal port operation // WGM - Normal
 37e:	1f bc       	out	0x2f, r1	; 47
	TCCR1B=(1<<ICNC1)|(1<<ICES1)|(1<<CS11); 
 380:	82 ec       	ldi	r24, 0xC2	; 194
 382:	8e bd       	out	0x2e, r24	; 46
	//Bit 7 – ICNC1: Input Capture Noise Canceler
	//Bit 6 – ICES1: Input Capture Edge Select
	//Bit 2:0 - CS12/CS11/CS10 - Clock select bits - 1Mhz (clk 8Mhz/8)
	
	TIMSK = 1<<TOIE1|1<<ICIE1;
 384:	88 e8       	ldi	r24, 0x88	; 136
 386:	89 bf       	out	0x39, r24	; 57
	//TOIE1: Timer/Counter1, Overflow Interrupt Enable
	//ICIE1: Timer/Counter1, Input Capture Interrupt Enable
	
	sei();
 388:	78 94       	sei

	while(1) {
		wdt_reset();
 38a:	a8 95       	wdr
		if (fail == FALSE) { //if there is signal
 38c:	80 91 66 00 	lds	r24, 0x0066
 390:	88 23       	and	r24, r24
 392:	81 f4       	brne	.+32     	; 0x3b4 <main+0x10a>
			if (pin.lastGoodWidth > 1550) { 
 394:	80 91 64 00 	lds	r24, 0x0064
 398:	90 91 65 00 	lds	r25, 0x0065
 39c:	a6 e0       	ldi	r26, 0x06	; 6
 39e:	8f 30       	cpi	r24, 0x0F	; 15
 3a0:	9a 07       	cpc	r25, r26
 3a2:	10 f0       	brcs	.+4      	; 0x3a8 <main+0xfe>
				Forward();
 3a4:	7b de       	rcall	.-778    	; 0x9c <Forward>
 3a6:	07 c0       	rjmp	.+14     	; 0x3b6 <main+0x10c>
			} else if (pin.lastGoodWidth < 1450) {
 3a8:	b5 e0       	ldi	r27, 0x05	; 5
 3aa:	8a 3a       	cpi	r24, 0xAA	; 170
 3ac:	9b 07       	cpc	r25, r27
 3ae:	10 f4       	brcc	.+4      	; 0x3b4 <main+0x10a>
				Backward();
 3b0:	78 de       	rcall	.-784    	; 0xa2 <Backward>
 3b2:	01 c0       	rjmp	.+2      	; 0x3b6 <main+0x10c>
			} else {
				DriverOff();	
			}	
		} else {
			DriverOff();	
 3b4:	6d de       	rcall	.-806    	; 0x90 <DriverOff>
		}
		UpdatePort(); 
 3b6:	7e de       	rcall	.-772    	; 0xb4 <UpdatePort>
	}
 3b8:	e8 cf       	rjmp	.-48     	; 0x38a <main+0xe0>

000003ba <_exit>:
 3ba:	f8 94       	cli

000003bc <__stop_program>:
 3bc:	ff cf       	rjmp	.-2      	; 0x3bc <__stop_program>
